target datalayout = "e-m:e-p270:32:32-p271:32:32-p272:64:64-i64:64-i128:128-f80:128-n8:16:32:64-S128"
target triple = "x86_64-pc-linux-gnu"

%struct.Aig_Obj_t_ = type { %union.anon, ptr, ptr, i64, i32, i32, %union.anon.0 }
%union.anon = type { ptr }
%union.anon.0 = type { ptr }

; Function Attrs: nounwind uwtable
define i32 @Dch_NodeIsConstCex(ptr noundef %0, ptr noundef %1) #0 {
  %3 = alloca ptr, align 8
  %4 = alloca ptr, align 8
  store ptr %0, ptr %3, align 8, !tbaa !3
  store ptr %1, ptr %4, align 8, !tbaa !7
  %5 = load ptr, ptr %4, align 8, !tbaa !7
  %6 = getelementptr inbounds nuw %struct.Aig_Obj_t_, ptr %5, i32 0, i32 3
  %7 = load i64, ptr %6, align 8
  %8 = lshr i64 %7, 3
  %9 = and i64 %8, 1
  %10 = trunc i64 %9 to i32
  %11 = load ptr, ptr %4, align 8, !tbaa !7
  %12 = getelementptr inbounds nuw %struct.Aig_Obj_t_, ptr %11, i32 0, i32 3
  %13 = load i64, ptr %12, align 8
  %14 = lshr i64 %13, 5
  %15 = and i64 %14, 1
  %16 = trunc i64 %15 to i32
  %17 = icmp eq i32 %10, %16
  %18 = zext i1 %17 to i32
  ret i32 %18
}