; Function Attrs: mustprogress nofree norecurse nosync nounwind willreturn memory(argmem: read) uwtable
define range(i32 0, 2) i32 @Dch_NodeIsConstCex(ptr readnone captures(none) %0, ptr noundef readonly captures(none) %1) #0 {
  %3 = getelementptr inbounds nuw i8, ptr %1, i64 24
  %4 = load i64, ptr %3, align 8
  %5 = trunc i64 %4 to i32
  %6 = lshr i32 %5, 3
  %7 = lshr i32 %5, 5
  %8 = xor i32 %6, %7
  %9 = and i32 %8, 1
  %10 = xor i32 %9, 1
  ret i32 %10
}